target datalayout = "e-m:e-p270:32:32-p271:32:32-p272:64:64-i64:64-i128:128-f80:128-n8:16:32:64-S128"
target triple = "x86_64-pc-linux-gnu"

%struct.PHP_MD4_CTX = type { [4 x i32], [2 x i32], [64 x i8] }

; Function Attrs: nounwind uwtable
define dso_local void @PHP_MD4InitArgs(ptr noundef %0, ptr noundef %1) #1 {
  %3 = alloca ptr, align 8
  %4 = alloca ptr, align 8
  store ptr %0, ptr %3, align 8, !tbaa !4
  store ptr %1, ptr %4, align 8, !tbaa !8
  %5 = load ptr, ptr %3, align 8, !tbaa !4
  %6 = getelementptr inbounds nuw %struct.PHP_MD4_CTX, ptr %5, i32 0, i32 1
  %7 = getelementptr inbounds [2 x i32], ptr %6, i64 0, i64 1
  store i32 0, ptr %7, align 4, !tbaa !10
  %8 = load ptr, ptr %3, align 8, !tbaa !4
  %9 = getelementptr inbounds nuw %struct.PHP_MD4_CTX, ptr %8, i32 0, i32 1
  %10 = getelementptr inbounds [2 x i32], ptr %9, i64 0, i64 0
  store i32 0, ptr %10, align 4, !tbaa !10
  %11 = load ptr, ptr %3, align 8, !tbaa !4
  %12 = getelementptr inbounds nuw %struct.PHP_MD4_CTX, ptr %11, i32 0, i32 0
  %13 = getelementptr inbounds [4 x i32], ptr %12, i64 0, i64 0
  store i32 1732584193, ptr %13, align 4, !tbaa !10
  %14 = load ptr, ptr %3, align 8, !tbaa !4
  %15 = getelementptr inbounds nuw %struct.PHP_MD4_CTX, ptr %14, i32 0, i32 0
  %16 = getelementptr inbounds [4 x i32], ptr %15, i64 0, i64 1
  store i32 -271733879, ptr %16, align 4, !tbaa !10
  %17 = load ptr, ptr %3, align 8, !tbaa !4
  %18 = getelementptr inbounds nuw %struct.PHP_MD4_CTX, ptr %17, i32 0, i32 0
  %19 = getelementptr inbounds [4 x i32], ptr %18, i64 0, i64 2
  store i32 -1732584194, ptr %19, align 4, !tbaa !10
  %20 = load ptr, ptr %3, align 8, !tbaa !4
  %21 = getelementptr inbounds nuw %struct.PHP_MD4_CTX, ptr %20, i32 0, i32 0
  %22 = getelementptr inbounds [4 x i32], ptr %21, i64 0, i64 3
  store i32 271733878, ptr %22, align 4, !tbaa !10
  ret void
}